target datalayout = "e-m:e-p270:32:32-p271:32:32-p272:64:64-i64:64-i128:128-f80:128-n8:16:32:64-S128"
target triple = "x86_64-pc-linux-gnu"

%struct.ossl_param_st = type { ptr, i32, ptr, i64, i64 }

@.str.53 = private unnamed_addr constant [31 x i8] c"../openssl/test/evp_kdf_test.c\00", align 1
@.str.65 = private unnamed_addr constant [37 x i8] c"EVP_KDF_CTX_set_params(kctx, params)\00", align 1
@.str.66 = private unnamed_addr constant [45 x i8] c"EVP_KDF_derive(kctx, out, sizeof(out), NULL)\00", align 1
@.str.67 = private unnamed_addr constant [2 x i8] c"0\00", align 1
@.str.68 = private unnamed_addr constant [4 x i8] c"out\00", align 1
@.str.69 = private unnamed_addr constant [9 x i8] c"expected\00", align 1
@.str.70 = private unnamed_addr constant [5 x i8] c"pass\00", align 1
@.str.71 = private unnamed_addr constant [5 x i8] c"salt\00", align 1
@.str.94 = private unnamed_addr constant [2 x i8] c"r\00", align 1
@test_kdf_scrypt.expected = internal constant [64 x i8] c"\FD\BA\BE\1C\9D4r\00xV\E7\19\0D\01\E9\FE|j\D7\CB\C8#x0\E7svcK71b.\AF0\D9.\22\A3\88o\F1\09'\9D\980\DA\C7'\AF\B9J\83\EEm\83`\CB\DF\A2\CC\06@", align 16
@.str.143 = private unnamed_addr constant [9 x i8] c"password\00", align 1
@.str.144 = private unnamed_addr constant [5 x i8] c"NaCl\00", align 1
@.str.145 = private unnamed_addr constant [2 x i8] c"n\00", align 1
@.str.146 = private unnamed_addr constant [2 x i8] c"p\00", align 1
@.str.147 = private unnamed_addr constant [13 x i8] c"maxmem_bytes\00", align 1
@.str.148 = private unnamed_addr constant [43 x i8] c"kctx = get_kdfbyname(OSSL_KDF_NAME_SCRYPT)\00", align 1
@.str.149 = private unnamed_addr constant [7 x i8] c"SCRYPT\00", align 1
@.str.150 = private unnamed_addr constant [45 x i8] c"OSSL_PARAM_set_uint(p - 1, 10 * 1024 * 1024)\00", align 1
@.str.151 = private unnamed_addr constant [36 x i8] c"EVP_KDF_CTX_set_params(kctx, p - 1)\00", align 1

; Function Attrs: nounwind uwtable
define internal ptr @get_kdfbyname_libctx(ptr noundef %0, ptr noundef %1) #0 {
  %3 = alloca ptr, align 8
  %4 = alloca ptr, align 8
  %5 = alloca ptr, align 8
  %6 = alloca ptr, align 8
  store ptr %0, ptr %3, align 8, !tbaa !11
  store ptr %1, ptr %4, align 8, !tbaa !18
  call void @llvm.lifetime.start.p0(i64 8, ptr %5) #6
  %7 = load ptr, ptr %3, align 8, !tbaa !11
  %8 = load ptr, ptr %4, align 8, !tbaa !18
  %9 = call ptr @EVP_KDF_fetch(ptr noundef %7, ptr noundef %8, ptr noundef null)
  store ptr %9, ptr %5, align 8, !tbaa !26
  call void @llvm.lifetime.start.p0(i64 8, ptr %6) #6
  %10 = load ptr, ptr %5, align 8, !tbaa !26
  %11 = call ptr @EVP_KDF_CTX_new(ptr noundef %10)
  store ptr %11, ptr %6, align 8, !tbaa !8
  %12 = load ptr, ptr %5, align 8, !tbaa !26
  call void @EVP_KDF_free(ptr noundef %12)
  %13 = load ptr, ptr %6, align 8, !tbaa !8
  call void @llvm.lifetime.end.p0(i64 8, ptr %6) #6
  call void @llvm.lifetime.end.p0(i64 8, ptr %5) #6
  ret ptr %13
}

; Function Attrs: nounwind uwtable
define internal ptr @get_kdfbyname(ptr noundef %0) #0 {
  %2 = alloca ptr, align 8
  store ptr %0, ptr %2, align 8, !tbaa !18
  %3 = load ptr, ptr %2, align 8, !tbaa !18
  %4 = call ptr @get_kdfbyname_libctx(ptr noundef null, ptr noundef %3)
  ret ptr %4
}

; Function Attrs: nounwind uwtable
define internal i32 @test_kdf_scrypt() #0 {
  %1 = alloca i32, align 4
  %2 = alloca i32, align 4
  %3 = alloca ptr, align 8
  %4 = alloca [7 x %struct.ossl_param_st], align 16
  %5 = alloca ptr, align 8
  %6 = alloca [64 x i8], align 16
  %7 = alloca i32, align 4
  %8 = alloca i32, align 4
  %9 = alloca i32, align 4
  %10 = alloca i32, align 4
  %11 = alloca %struct.ossl_param_st, align 8
  %12 = alloca %struct.ossl_param_st, align 8
  %13 = alloca %struct.ossl_param_st, align 8
  %14 = alloca %struct.ossl_param_st, align 8
  %15 = alloca %struct.ossl_param_st, align 8
  %16 = alloca %struct.ossl_param_st, align 8
  %17 = alloca %struct.ossl_param_st, align 8
  call void @llvm.lifetime.start.p0(i64 4, ptr %1) #6
  call void @llvm.lifetime.start.p0(i64 4, ptr %2) #6
  call void @llvm.lifetime.start.p0(i64 8, ptr %3) #6
  call void @llvm.lifetime.start.p0(i64 280, ptr %4) #6
  call void @llvm.lifetime.start.p0(i64 8, ptr %5) #6
  %18 = getelementptr inbounds [7 x %struct.ossl_param_st], ptr %4, i64 0, i64 0
  store ptr %18, ptr %5, align 8, !tbaa !13
  call void @llvm.lifetime.start.p0(i64 64, ptr %6) #6
  call void @llvm.lifetime.start.p0(i64 4, ptr %7) #6
  store i32 1024, ptr %7, align 4, !tbaa !4
  call void @llvm.lifetime.start.p0(i64 4, ptr %8) #6
  store i32 8, ptr %8, align 4, !tbaa !4
  call void @llvm.lifetime.start.p0(i64 4, ptr %9) #6
  store i32 16, ptr %9, align 4, !tbaa !4
  call void @llvm.lifetime.start.p0(i64 4, ptr %10) #6
  store i32 16, ptr %10, align 4, !tbaa !4
  %19 = load ptr, ptr %5, align 8, !tbaa !13
  %20 = getelementptr inbounds nuw %struct.ossl_param_st, ptr %19, i32 1
  store ptr %20, ptr %5, align 8, !tbaa !13
  call void @llvm.lifetime.start.p0(i64 40, ptr %11) #6
  call void @OSSL_PARAM_construct_octet_string(ptr dead_on_unwind writable sret(%struct.ossl_param_st) align 8 %11, ptr noundef @.str.70, ptr noundef @.str.143, i64 noundef 8)
  call void @llvm.memcpy.p0.p0.i64(ptr align 8 %19, ptr align 8 %11, i64 40, i1 false), !tbaa.struct !17
  call void @llvm.lifetime.end.p0(i64 40, ptr %11) #6
  %21 = load ptr, ptr %5, align 8, !tbaa !13
  %22 = getelementptr inbounds nuw %struct.ossl_param_st, ptr %21, i32 1
  store ptr %22, ptr %5, align 8, !tbaa !13
  call void @llvm.lifetime.start.p0(i64 40, ptr %12) #6
  call void @OSSL_PARAM_construct_octet_string(ptr dead_on_unwind writable sret(%struct.ossl_param_st) align 8 %12, ptr noundef @.str.71, ptr noundef @.str.144, i64 noundef 4)
  call void @llvm.memcpy.p0.p0.i64(ptr align 8 %21, ptr align 8 %12, i64 40, i1 false), !tbaa.struct !17
  call void @llvm.lifetime.end.p0(i64 40, ptr %12) #6
  %23 = load ptr, ptr %5, align 8, !tbaa !13
  %24 = getelementptr inbounds nuw %struct.ossl_param_st, ptr %23, i32 1
  store ptr %24, ptr %5, align 8, !tbaa !13
  call void @llvm.lifetime.start.p0(i64 40, ptr %13) #6
  call void @OSSL_PARAM_construct_uint(ptr dead_on_unwind writable sret(%struct.ossl_param_st) align 8 %13, ptr noundef @.str.145, ptr noundef %7)
  call void @llvm.memcpy.p0.p0.i64(ptr align 8 %23, ptr align 8 %13, i64 40, i1 false), !tbaa.struct !17
  call void @llvm.lifetime.end.p0(i64 40, ptr %13) #6
  %25 = load ptr, ptr %5, align 8, !tbaa !13
  %26 = getelementptr inbounds nuw %struct.ossl_param_st, ptr %25, i32 1
  store ptr %26, ptr %5, align 8, !tbaa !13
  call void @llvm.lifetime.start.p0(i64 40, ptr %14) #6
  call void @OSSL_PARAM_construct_uint(ptr dead_on_unwind writable sret(%struct.ossl_param_st) align 8 %14, ptr noundef @.str.94, ptr noundef %8)
  call void @llvm.memcpy.p0.p0.i64(ptr align 8 %25, ptr align 8 %14, i64 40, i1 false), !tbaa.struct !17
  call void @llvm.lifetime.end.p0(i64 40, ptr %14) #6
  %27 = load ptr, ptr %5, align 8, !tbaa !13
  %28 = getelementptr inbounds nuw %struct.ossl_param_st, ptr %27, i32 1
  store ptr %28, ptr %5, align 8, !tbaa !13
  call void @llvm.lifetime.start.p0(i64 40, ptr %15) #6
  call void @OSSL_PARAM_construct_uint(ptr dead_on_unwind writable sret(%struct.ossl_param_st) align 8 %15, ptr noundef @.str.146, ptr noundef %9)
  call void @llvm.memcpy.p0.p0.i64(ptr align 8 %27, ptr align 8 %15, i64 40, i1 false), !tbaa.struct !17
  call void @llvm.lifetime.end.p0(i64 40, ptr %15) #6
  %29 = load ptr, ptr %5, align 8, !tbaa !13
  %30 = getelementptr inbounds nuw %struct.ossl_param_st, ptr %29, i32 1
  store ptr %30, ptr %5, align 8, !tbaa !13
  call void @llvm.lifetime.start.p0(i64 40, ptr %16) #6
  call void @OSSL_PARAM_construct_uint(ptr dead_on_unwind writable sret(%struct.ossl_param_st) align 8 %16, ptr noundef @.str.147, ptr noundef %10)
  call void @llvm.memcpy.p0.p0.i64(ptr align 8 %29, ptr align 8 %16, i64 40, i1 false), !tbaa.struct !17
  call void @llvm.lifetime.end.p0(i64 40, ptr %16) #6
  %31 = load ptr, ptr %5, align 8, !tbaa !13
  call void @llvm.lifetime.start.p0(i64 40, ptr %17) #6
  call void @OSSL_PARAM_construct_end(ptr dead_on_unwind writable sret(%struct.ossl_param_st) align 8 %17)
  call void @llvm.memcpy.p0.p0.i64(ptr align 8 %31, ptr align 8 %17, i64 40, i1 false), !tbaa.struct !17
  call void @llvm.lifetime.end.p0(i64 40, ptr %17) #6
  %32 = call ptr @get_kdfbyname(ptr noundef @.str.149)
  store ptr %32, ptr %3, align 8, !tbaa !8
  %33 = call i32 @test_ptr(ptr noundef @.str.53, i32 noundef 886, ptr noundef @.str.148, ptr noundef %32)
  store i32 %33, ptr %2, align 4, !tbaa !4
  store i32 0, ptr %1, align 4, !tbaa !4
  br label %34

34:                                               ; preds = %108, %0
  %35 = load i32, ptr %2, align 4, !tbaa !4
  %36 = icmp ne i32 %35, 0
  br i1 %36, label %37, label %40

37:                                               ; preds = %34
  %38 = load i32, ptr %1, align 4, !tbaa !4
  %39 = icmp slt i32 %38, 2
  br label %40

40:                                               ; preds = %37, %34
  %41 = phi i1 [ false, %34 ], [ %39, %37 ]
  br i1 %41, label %42, label %111

42:                                               ; preds = %40
  %43 = load i32, ptr %2, align 4, !tbaa !4
  %44 = icmp ne i32 %43, 0
  br i1 %44, label %45, label %53

45:                                               ; preds = %42
  %46 = load ptr, ptr %3, align 8, !tbaa !8
  %47 = getelementptr inbounds [7 x %struct.ossl_param_st], ptr %4, i64 0, i64 0
  %48 = call i32 @EVP_KDF_CTX_set_params(ptr noundef %46, ptr noundef %47)
  %49 = icmp ne i32 %48, 0
  %50 = zext i1 %49 to i32
  %51 = call i32 @test_true(ptr noundef @.str.53, i32 noundef 889, ptr noundef @.str.65, i32 noundef %50)
  %52 = icmp ne i32 %51, 0
  br label %53

53:                                               ; preds = %45, %42
  %54 = phi i1 [ false, %42 ], [ %52, %45 ]
  %55 = zext i1 %54 to i32
  store i32 %55, ptr %2, align 4, !tbaa !4
  %56 = load i32, ptr %1, align 4, !tbaa !4
  %57 = icmp eq i32 %56, 0
  br i1 %57, label %58, label %87

58:                                               ; preds = %53
  %59 = load i32, ptr %2, align 4, !tbaa !4
  %60 = icmp ne i32 %59, 0
  br i1 %60, label %61, label %84

61:                                               ; preds = %58
  %62 = load ptr, ptr %3, align 8, !tbaa !8
  %63 = getelementptr inbounds [64 x i8], ptr %6, i64 0, i64 0
  %64 = call i32 @EVP_KDF_derive(ptr noundef %62, ptr noundef %63, i64 noundef 64, ptr noundef null)
  %65 = call i32 @test_int_le(ptr noundef @.str.53, i32 noundef 892, ptr noundef @.str.66, ptr noundef @.str.67, i32 noundef %64, i32 noundef 0)
  %66 = icmp ne i32 %65, 0
  br i1 %66, label %67, label %84

67:                                               ; preds = %61
  %68 = load ptr, ptr %5, align 8, !tbaa !13
  %69 = getelementptr inbounds %struct.ossl_param_st, ptr %68, i64 -1
  %70 = call i32 @OSSL_PARAM_set_uint(ptr noundef %69, i32 noundef 10485760)
  %71 = icmp ne i32 %70, 0
  %72 = zext i1 %71 to i32
  %73 = call i32 @test_true(ptr noundef @.str.53, i32 noundef 893, ptr noundef @.str.150, i32 noundef %72)
  %74 = icmp ne i32 %73, 0
  br i1 %74, label %75, label %84

75:                                               ; preds = %67
  %76 = load ptr, ptr %3, align 8, !tbaa !8
  %77 = load ptr, ptr %5, align 8, !tbaa !13
  %78 = getelementptr inbounds %struct.ossl_param_st, ptr %77, i64 -1
  %79 = call i32 @EVP_KDF_CTX_set_params(ptr noundef %76, ptr noundef %78)
  %80 = icmp ne i32 %79, 0
  %81 = zext i1 %80 to i32
  %82 = call i32 @test_true(ptr noundef @.str.53, i32 noundef 894, ptr noundef @.str.151, i32 noundef %81)
  %83 = icmp ne i32 %82, 0
  br label %84

84:                                               ; preds = %75, %67, %61, %58
  %85 = phi i1 [ false, %67 ], [ false, %61 ], [ false, %58 ], [ %83, %75 ]
  %86 = zext i1 %85 to i32
  store i32 %86, ptr %2, align 4, !tbaa !4
  br label %87

87:                                               ; preds = %84, %53
  %88 = load i32, ptr %2, align 4, !tbaa !4
  %89 = icmp ne i32 %88, 0
  br i1 %89, label %90, label %100

90:                                               ; preds = %87
  %91 = load ptr, ptr %3, align 8, !tbaa !8
  %92 = getelementptr inbounds [64 x i8], ptr %6, i64 0, i64 0
  %93 = call i32 @EVP_KDF_derive(ptr noundef %91, ptr noundef %92, i64 noundef 64, ptr noundef null)
  %94 = call i32 @test_int_gt(ptr noundef @.str.53, i32 noundef 896, ptr noundef @.str.66, ptr noundef @.str.67, i32 noundef %93, i32 noundef 0)
  %95 = icmp ne i32 %94, 0
  br i1 %95, label %96, label %100

96:                                               ; preds = %90
  %97 = getelementptr inbounds [64 x i8], ptr %6, i64 0, i64 0
  %98 = call i32 @test_mem_eq(ptr noundef @.str.53, i32 noundef 897, ptr noundef @.str.68, ptr noundef @.str.69, ptr noundef %97, i64 noundef 64, ptr noundef @test_kdf_scrypt.expected, i64 noundef 64)
  %99 = icmp ne i32 %98, 0
  br label %100

100:                                              ; preds = %96, %90, %87
  %101 = phi i1 [ false, %90 ], [ false, %87 ], [ %99, %96 ]
  %102 = zext i1 %101 to i32
  store i32 %102, ptr %2, align 4, !tbaa !4
  %103 = load i32, ptr %1, align 4, !tbaa !4
  %104 = icmp eq i32 %103, 0
  br i1 %104, label %105, label %107

105:                                              ; preds = %100
  %106 = load ptr, ptr %3, align 8, !tbaa !8
  call void @EVP_KDF_CTX_reset(ptr noundef %106)
  br label %107

107:                                              ; preds = %105, %100
  br label %108

108:                                              ; preds = %107
  %109 = load i32, ptr %1, align 4, !tbaa !4
  %110 = add nsw i32 %109, 1
  store i32 %110, ptr %1, align 4, !tbaa !4
  br label %34, !llvm.loop !30

111:                                              ; preds = %40
  %112 = load ptr, ptr %3, align 8, !tbaa !8
  call void @EVP_KDF_CTX_free(ptr noundef %112)
  %113 = load i32, ptr %2, align 4, !tbaa !4
  call void @llvm.lifetime.end.p0(i64 4, ptr %10) #6
  call void @llvm.lifetime.end.p0(i64 4, ptr %9) #6
  call void @llvm.lifetime.end.p0(i64 4, ptr %8) #6
  call void @llvm.lifetime.end.p0(i64 4, ptr %7) #6
  call void @llvm.lifetime.end.p0(i64 64, ptr %6) #6
  call void @llvm.lifetime.end.p0(i64 8, ptr %5) #6
  call void @llvm.lifetime.end.p0(i64 280, ptr %4) #6
  call void @llvm.lifetime.end.p0(i64 8, ptr %3) #6
  call void @llvm.lifetime.end.p0(i64 4, ptr %2) #6
  call void @llvm.lifetime.end.p0(i64 4, ptr %1) #6
  ret i32 %113
}