; Function Attrs: nounwind uwtable
define internal range(i32 0, 2) i32 @test_kdf_scrypt() #0 {
  %1 = alloca [7 x %struct.ossl_param_st], align 16
  %2 = alloca [64 x i8], align 16
  %3 = alloca i32, align 4
  %4 = alloca i32, align 4
  %5 = alloca i32, align 4
  %6 = alloca i32, align 4
  %7 = alloca %struct.ossl_param_st, align 8
  %8 = alloca %struct.ossl_param_st, align 8
  %9 = alloca %struct.ossl_param_st, align 8
  %10 = alloca %struct.ossl_param_st, align 8
  %11 = alloca %struct.ossl_param_st, align 8
  %12 = alloca %struct.ossl_param_st, align 8
  call void @llvm.lifetime.start.p0(i64 280, ptr nonnull %1) #6
  call void @llvm.lifetime.start.p0(i64 64, ptr nonnull %2) #6
  call void @llvm.lifetime.start.p0(i64 4, ptr nonnull %3) #6
  store i32 1024, ptr %3, align 4, !tbaa !4
  call void @llvm.lifetime.start.p0(i64 4, ptr nonnull %4) #6
  store i32 8, ptr %4, align 4, !tbaa !4
  call void @llvm.lifetime.start.p0(i64 4, ptr nonnull %5) #6
  store i32 16, ptr %5, align 4, !tbaa !4
  call void @llvm.lifetime.start.p0(i64 4, ptr nonnull %6) #6
  store i32 16, ptr %6, align 4, !tbaa !4
  %13 = getelementptr inbounds nuw i8, ptr %1, i64 40
  call void @OSSL_PARAM_construct_octet_string(ptr dead_on_unwind nonnull writable sret(%struct.ossl_param_st) align 8 %1, ptr noundef nonnull @.str.70, ptr noundef nonnull @.str.143, i64 noundef 8) #6
  %14 = getelementptr inbounds nuw i8, ptr %1, i64 80
  call void @llvm.lifetime.start.p0(i64 40, ptr nonnull %7) #6
  call void @OSSL_PARAM_construct_octet_string(ptr dead_on_unwind nonnull writable sret(%struct.ossl_param_st) align 8 %7, ptr noundef nonnull @.str.71, ptr noundef nonnull @.str.144, i64 noundef 4) #6
  call void @llvm.memcpy.p0.p0.i64(ptr noundef nonnull align 8 dereferenceable(40) %13, ptr noundef nonnull align 8 dereferenceable(40) %7, i64 40, i1 false), !tbaa.struct !10
  call void @llvm.lifetime.end.p0(i64 40, ptr nonnull %7) #6
  %15 = getelementptr inbounds nuw i8, ptr %1, i64 120
  call void @llvm.lifetime.start.p0(i64 40, ptr nonnull %8) #6
  call void @OSSL_PARAM_construct_uint(ptr dead_on_unwind nonnull writable sret(%struct.ossl_param_st) align 8 %8, ptr noundef nonnull @.str.145, ptr noundef nonnull %3) #6
  call void @llvm.memcpy.p0.p0.i64(ptr noundef nonnull align 16 dereferenceable(40) %14, ptr noundef nonnull align 8 dereferenceable(40) %8, i64 40, i1 false), !tbaa.struct !10
  call void @llvm.lifetime.end.p0(i64 40, ptr nonnull %8) #6
  %16 = getelementptr inbounds nuw i8, ptr %1, i64 160
  call void @llvm.lifetime.start.p0(i64 40, ptr nonnull %9) #6
  call void @OSSL_PARAM_construct_uint(ptr dead_on_unwind nonnull writable sret(%struct.ossl_param_st) align 8 %9, ptr noundef nonnull @.str.94, ptr noundef nonnull %4) #6
  call void @llvm.memcpy.p0.p0.i64(ptr noundef nonnull align 8 dereferenceable(40) %15, ptr noundef nonnull align 8 dereferenceable(40) %9, i64 40, i1 false), !tbaa.struct !10
  call void @llvm.lifetime.end.p0(i64 40, ptr nonnull %9) #6
  %17 = getelementptr inbounds nuw i8, ptr %1, i64 200
  call void @llvm.lifetime.start.p0(i64 40, ptr nonnull %10) #6
  call void @OSSL_PARAM_construct_uint(ptr dead_on_unwind nonnull writable sret(%struct.ossl_param_st) align 8 %10, ptr noundef nonnull @.str.146, ptr noundef nonnull %5) #6
  call void @llvm.memcpy.p0.p0.i64(ptr noundef nonnull align 16 dereferenceable(40) %16, ptr noundef nonnull align 8 dereferenceable(40) %10, i64 40, i1 false), !tbaa.struct !10
  call void @llvm.lifetime.end.p0(i64 40, ptr nonnull %10) #6
  %18 = getelementptr inbounds nuw i8, ptr %1, i64 240
  call void @llvm.lifetime.start.p0(i64 40, ptr nonnull %11) #6
  call void @OSSL_PARAM_construct_uint(ptr dead_on_unwind nonnull writable sret(%struct.ossl_param_st) align 8 %11, ptr noundef nonnull @.str.147, ptr noundef nonnull %6) #6
  call void @llvm.memcpy.p0.p0.i64(ptr noundef nonnull align 8 dereferenceable(40) %17, ptr noundef nonnull align 8 dereferenceable(40) %11, i64 40, i1 false), !tbaa.struct !10
  call void @llvm.lifetime.end.p0(i64 40, ptr nonnull %11) #6
  call void @llvm.lifetime.start.p0(i64 40, ptr nonnull %12) #6
  call void @OSSL_PARAM_construct_end(ptr dead_on_unwind nonnull writable sret(%struct.ossl_param_st) align 8 %12) #6
  call void @llvm.memcpy.p0.p0.i64(ptr noundef nonnull align 16 dereferenceable(40) %18, ptr noundef nonnull align 8 dereferenceable(40) %12, i64 40, i1 false), !tbaa.struct !10
  call void @llvm.lifetime.end.p0(i64 40, ptr nonnull %12) #6
  %19 = call ptr @EVP_KDF_fetch(ptr noundef null, ptr noundef nonnull @.str.149, ptr noundef null) #6
  %20 = call ptr @EVP_KDF_CTX_new(ptr noundef %19) #6
  call void @EVP_KDF_free(ptr noundef %19) #6
  %21 = call i32 @test_ptr(ptr noundef nonnull @.str.53, i32 noundef 886, ptr noundef nonnull @.str.148, ptr noundef %20) #6
  %.not31 = icmp eq i32 %21, 0
  br i1 %.not31, label %._crit_edge, label %.lr.ph

.lr.ph:                                           ; preds = %0, %.critedge.thread29
  %22 = phi i1 [ false, %.critedge.thread29 ], [ true, %0 ]
  %23 = call i32 @EVP_KDF_CTX_set_params(ptr noundef %20, ptr noundef nonnull %1) #6
  %24 = icmp ne i32 %23, 0
  %25 = zext i1 %24 to i32
  %26 = call i32 @test_true(ptr noundef nonnull @.str.53, i32 noundef 889, ptr noundef nonnull @.str.65, i32 noundef %25) #6
  %.not27 = icmp eq i32 %26, 0
  br i1 %22, label %27, label %41

27:                                               ; preds = %.lr.ph
  br i1 %.not27, label %.critedge.thread29, label %28

28:                                               ; preds = %27
  %29 = call i32 @EVP_KDF_derive(ptr noundef %20, ptr noundef nonnull %2, i64 noundef 64, ptr noundef null) #6
  %30 = call i32 @test_int_le(ptr noundef nonnull @.str.53, i32 noundef 892, ptr noundef nonnull @.str.66, ptr noundef nonnull @.str.67, i32 noundef %29, i32 noundef 0) #6
  %.not = icmp eq i32 %30, 0
  br i1 %.not, label %.critedge.thread29, label %31

31:                                               ; preds = %28
  %32 = call i32 @OSSL_PARAM_set_uint(ptr noundef nonnull %17, i32 noundef 10485760) #6
  %33 = icmp ne i32 %32, 0
  %34 = zext i1 %33 to i32
  %35 = call i32 @test_true(ptr noundef nonnull @.str.53, i32 noundef 893, ptr noundef nonnull @.str.150, i32 noundef %34) #6
  %.not24 = icmp eq i32 %35, 0
  br i1 %.not24, label %.critedge.thread29, label %36

36:                                               ; preds = %31
  %37 = call i32 @EVP_KDF_CTX_set_params(ptr noundef %20, ptr noundef nonnull %17) #6
  %38 = icmp ne i32 %37, 0
  %39 = zext i1 %38 to i32
  %40 = call i32 @test_true(ptr noundef nonnull @.str.53, i32 noundef 894, ptr noundef nonnull @.str.151, i32 noundef %39) #6
  %.not26 = icmp eq i32 %40, 0
  br i1 %.not26, label %.critedge.thread29, label %42

41:                                               ; preds = %.lr.ph
  br i1 %.not27, label %._crit_edge, label %42

42:                                               ; preds = %36, %41
  %43 = call i32 @EVP_KDF_derive(ptr noundef %20, ptr noundef nonnull %2, i64 noundef 64, ptr noundef null) #6
  %44 = call i32 @test_int_gt(ptr noundef nonnull @.str.53, i32 noundef 896, ptr noundef nonnull @.str.66, ptr noundef nonnull @.str.67, i32 noundef %43, i32 noundef 0) #6
  %.not28 = icmp eq i32 %44, 0
  br i1 %.not28, label %.critedge, label %45

45:                                               ; preds = %42
  %46 = call i32 @test_mem_eq(ptr noundef nonnull @.str.53, i32 noundef 897, ptr noundef nonnull @.str.68, ptr noundef nonnull @.str.69, ptr noundef nonnull %2, i64 noundef 64, ptr noundef nonnull @test_kdf_scrypt.expected, i64 noundef 64) #6
  %47 = icmp ne i32 %46, 0
  %48 = zext i1 %47 to i32
  br label %.critedge

.critedge:                                        ; preds = %45, %42
  %49 = phi i32 [ 0, %42 ], [ %48, %45 ]
  br i1 %22, label %.critedge.thread29, label %._crit_edge

.critedge.thread29:                               ; preds = %.critedge, %36, %31, %28, %27
  %50 = phi i32 [ %49, %.critedge ], [ 0, %36 ], [ 0, %31 ], [ 0, %28 ], [ 0, %27 ]
  call void @EVP_KDF_CTX_reset(ptr noundef %20) #6
  %51 = icmp ne i32 %50, 0
  %52 = and i1 %51, %22
  br i1 %52, label %.lr.ph, label %._crit_edge, !llvm.loop !18

._crit_edge:                                      ; preds = %.critedge, %41, %.critedge.thread29, %0
  %.023.lcssa = phi i32 [ 0, %0 ], [ %49, %.critedge ], [ 0, %41 ], [ %50, %.critedge.thread29 ]
  call void @EVP_KDF_CTX_free(ptr noundef %20) #6
  call void @llvm.lifetime.end.p0(i64 4, ptr nonnull %6) #6
  call void @llvm.lifetime.end.p0(i64 4, ptr nonnull %5) #6
  call void @llvm.lifetime.end.p0(i64 4, ptr nonnull %4) #6
  call void @llvm.lifetime.end.p0(i64 4, ptr nonnull %3) #6
  call void @llvm.lifetime.end.p0(i64 64, ptr nonnull %2) #6
  call void @llvm.lifetime.end.p0(i64 280, ptr nonnull %1) #6
  ret i32 %.023.lcssa
}